target datalayout = "e-m:e-p270:32:32-p271:32:32-p272:64:64-i64:64-i128:128-f80:128-n8:16:32:64-S128"
target triple = "x86_64-pc-linux-gnu"

%struct._object = type { %union.anon, ptr }
%union.anon = type { i64 }
%struct.PyMutex = type { i8 }
%struct.anon = type { i32, i32 }
%struct.EVPobject = type { %struct._object, ptr, i8, %struct.PyMutex }

@PyExc_ValueError = external global ptr, align 8

; Function Attrs: inlinehint nounwind uwtable
define internal i32 @_Py_atomic_compare_exchange_uint8(ptr noundef %0, ptr noundef %1, i8 noundef zeroext %2) #4 {
  %4 = alloca ptr, align 8
  %5 = alloca ptr, align 8
  %6 = alloca i8, align 1
  %7 = alloca i8, align 1
  %8 = alloca i8, align 1
  store ptr %0, ptr %4, align 8, !tbaa !21
  store ptr %1, ptr %5, align 8, !tbaa !21
  store i8 %2, ptr %6, align 1, !tbaa !28
  %9 = load ptr, ptr %4, align 8, !tbaa !21
  %10 = load ptr, ptr %5, align 8, !tbaa !21
  %11 = load i8, ptr %6, align 1, !tbaa !28
  store i8 %11, ptr %7, align 1, !tbaa !28
  %12 = load i8, ptr %10, align 1
  %13 = load i8, ptr %7, align 1
  %14 = cmpxchg ptr %9, i8 %12, i8 %13 seq_cst seq_cst, align 1
  %15 = extractvalue { i8, i1 } %14, 0
  %16 = extractvalue { i8, i1 } %14, 1
  br i1 %16, label %18, label %17

17:                                               ; preds = %3
  store i8 %15, ptr %10, align 1
  br label %18

18:                                               ; preds = %17, %3
  %19 = zext i1 %16 to i8
  store i8 %19, ptr %8, align 1, !tbaa !53
  %20 = load i8, ptr %8, align 1, !tbaa !53, !range !38, !noundef !39
  %21 = trunc i8 %20 to i1
  %22 = zext i1 %21 to i32
  ret i32 %22
}

; Function Attrs: inlinehint nounwind uwtable
define internal void @_PyMutex_Unlock(ptr noundef %0) #4 {
  %2 = alloca ptr, align 8
  %3 = alloca i8, align 1
  store ptr %0, ptr %2, align 8, !tbaa !51
  call void @llvm.lifetime.start.p0(i64 1, ptr %3) #9
  store i8 1, ptr %3, align 1, !tbaa !28
  %4 = load ptr, ptr %2, align 8, !tbaa !51
  %5 = getelementptr inbounds nuw %struct.PyMutex, ptr %4, i32 0, i32 0
  %6 = call i32 @_Py_atomic_compare_exchange_uint8(ptr noundef %5, ptr noundef %3, i8 noundef zeroext 0)
  %7 = icmp ne i32 %6, 0
  br i1 %7, label %10, label %8

8:                                                ; preds = %1
  %9 = load ptr, ptr %2, align 8, !tbaa !51
  call void @PyMutex_Unlock(ptr noundef %9)
  br label %10

10:                                               ; preds = %8, %1
  call void @llvm.lifetime.end.p0(i64 1, ptr %3) #9
  ret void
}

; Function Attrs: inlinehint nounwind uwtable
define internal void @_PyMutex_Lock(ptr noundef %0) #4 {
  %2 = alloca ptr, align 8
  %3 = alloca i8, align 1
  store ptr %0, ptr %2, align 8, !tbaa !51
  call void @llvm.lifetime.start.p0(i64 1, ptr %3) #9
  store i8 0, ptr %3, align 1, !tbaa !28
  %4 = load ptr, ptr %2, align 8, !tbaa !51
  %5 = getelementptr inbounds nuw %struct.PyMutex, ptr %4, i32 0, i32 0
  %6 = call i32 @_Py_atomic_compare_exchange_uint8(ptr noundef %5, ptr noundef %3, i8 noundef zeroext 1)
  %7 = icmp ne i32 %6, 0
  br i1 %7, label %10, label %8

8:                                                ; preds = %1
  %9 = load ptr, ptr %2, align 8, !tbaa !51
  call void @PyMutex_Lock(ptr noundef %9)
  br label %10

10:                                               ; preds = %8, %1
  call void @llvm.lifetime.end.p0(i64 1, ptr %3) #9
  ret void
}

; Function Attrs: nounwind uwtable
define internal i32 @locked_EVP_MD_CTX_copy(ptr noundef %0, ptr noundef %1) #0 {
  %3 = alloca ptr, align 8
  %4 = alloca ptr, align 8
  %5 = alloca i32, align 4
  store ptr %0, ptr %3, align 8, !tbaa !98
  store ptr %1, ptr %4, align 8, !tbaa !3
  call void @llvm.lifetime.start.p0(i64 4, ptr %5) #9
  %6 = load ptr, ptr %4, align 8, !tbaa !3
  %7 = getelementptr inbounds nuw %struct.EVPobject, ptr %6, i32 0, i32 2
  %8 = load i8, ptr %7, align 8, !tbaa !75, !range !38, !noundef !39
  %9 = trunc i8 %8 to i1
  br i1 %9, label %10, label %13

10:                                               ; preds = %2
  %11 = load ptr, ptr %4, align 8, !tbaa !3
  %12 = getelementptr inbounds nuw %struct.EVPobject, ptr %11, i32 0, i32 3
  call void @_PyMutex_Lock(ptr noundef %12)
  br label %13

13:                                               ; preds = %10, %2
  %14 = load ptr, ptr %3, align 8, !tbaa !98
  %15 = load ptr, ptr %4, align 8, !tbaa !3
  %16 = getelementptr inbounds nuw %struct.EVPobject, ptr %15, i32 0, i32 1
  %17 = load ptr, ptr %16, align 8, !tbaa !69
  %18 = call i32 @EVP_MD_CTX_copy(ptr noundef %14, ptr noundef %17)
  store i32 %18, ptr %5, align 4, !tbaa !19
  %19 = load ptr, ptr %4, align 8, !tbaa !3
  %20 = getelementptr inbounds nuw %struct.EVPobject, ptr %19, i32 0, i32 2
  %21 = load i8, ptr %20, align 8, !tbaa !75, !range !38, !noundef !39
  %22 = trunc i8 %21 to i1
  br i1 %22, label %23, label %26

23:                                               ; preds = %13
  %24 = load ptr, ptr %4, align 8, !tbaa !3
  %25 = getelementptr inbounds nuw %struct.EVPobject, ptr %24, i32 0, i32 3
  call void @_PyMutex_Unlock(ptr noundef %25)
  br label %26

26:                                               ; preds = %23, %13
  %27 = load i32, ptr %5, align 4, !tbaa !19
  call void @llvm.lifetime.end.p0(i64 4, ptr %5) #9
  ret i32 %27
}

; Function Attrs: alwaysinline nounwind uwtable
define internal i32 @_Py_IsImmortal(ptr noundef %0) #3 {
  %2 = alloca ptr, align 8
  store ptr %0, ptr %2, align 8, !tbaa !14
  %3 = load ptr, ptr %2, align 8, !tbaa !14
  %4 = getelementptr inbounds nuw %struct._object, ptr %3, i32 0, i32 0
  %5 = getelementptr inbounds nuw %struct.anon, ptr %4, i32 0, i32 0
  %6 = load i32, ptr %5, align 8, !tbaa !28
  %7 = icmp slt i32 %6, 0
  %8 = zext i1 %7 to i32
  ret i32 %8
}

; Function Attrs: nounwind uwtable
define internal ptr @EVPXOF_hexdigest_impl(ptr noundef %0, i64 noundef %1) #0 {
  %3 = alloca ptr, align 8
  %4 = alloca ptr, align 8
  %5 = alloca i64, align 8
  %6 = alloca ptr, align 8
  %7 = alloca ptr, align 8
  %8 = alloca ptr, align 8
  %9 = alloca i32, align 4
  store ptr %0, ptr %4, align 8, !tbaa !3
  store i64 %1, ptr %5, align 8, !tbaa !32
  call void @llvm.lifetime.start.p0(i64 8, ptr %6) #9
  call void @llvm.lifetime.start.p0(i64 8, ptr %7) #9
  call void @llvm.lifetime.start.p0(i64 8, ptr %8) #9
  %10 = load i64, ptr %5, align 8, !tbaa !32
  %11 = call ptr @PyMem_Malloc(i64 noundef %10)
  store ptr %11, ptr %6, align 8, !tbaa !21
  %12 = load ptr, ptr %6, align 8, !tbaa !21
  %13 = icmp eq ptr %12, null
  br i1 %13, label %14, label %16

14:                                               ; preds = %2
  %15 = call ptr @PyErr_NoMemory()
  store ptr null, ptr %3, align 8
  store i32 1, ptr %9, align 4
  br label %51

16:                                               ; preds = %2
  %17 = call ptr @EVP_MD_CTX_new()
  store ptr %17, ptr %7, align 8, !tbaa !98
  %18 = load ptr, ptr %7, align 8, !tbaa !98
  %19 = icmp eq ptr %18, null
  br i1 %19, label %20, label %23

20:                                               ; preds = %16
  %21 = load ptr, ptr %6, align 8, !tbaa !21
  call void @PyMem_Free(ptr noundef %21)
  %22 = call ptr @PyErr_NoMemory()
  store ptr null, ptr %3, align 8
  store i32 1, ptr %9, align 4
  br label %51

23:                                               ; preds = %16
  %24 = load ptr, ptr %7, align 8, !tbaa !98
  %25 = load ptr, ptr %4, align 8, !tbaa !3
  %26 = call i32 @locked_EVP_MD_CTX_copy(ptr noundef %24, ptr noundef %25)
  %27 = icmp ne i32 %26, 0
  br i1 %27, label %33, label %28

28:                                               ; preds = %23
  %29 = load ptr, ptr %6, align 8, !tbaa !21
  call void @PyMem_Free(ptr noundef %29)
  %30 = load ptr, ptr %7, align 8, !tbaa !98
  call void @EVP_MD_CTX_free(ptr noundef %30)
  %31 = load ptr, ptr @PyExc_ValueError, align 8, !tbaa !14
  %32 = call ptr (ptr, ptr, ...) @_setException(ptr noundef %31, ptr noundef null)
  store ptr %32, ptr %3, align 8
  store i32 1, ptr %9, align 4
  br label %51

33:                                               ; preds = %23
  %34 = load ptr, ptr %7, align 8, !tbaa !98
  %35 = load ptr, ptr %6, align 8, !tbaa !21
  %36 = load i64, ptr %5, align 8, !tbaa !32
  %37 = call i32 @EVP_DigestFinalXOF(ptr noundef %34, ptr noundef %35, i64 noundef %36)
  %38 = icmp ne i32 %37, 0
  br i1 %38, label %44, label %39

39:                                               ; preds = %33
  %40 = load ptr, ptr %6, align 8, !tbaa !21
  call void @PyMem_Free(ptr noundef %40)
  %41 = load ptr, ptr %7, align 8, !tbaa !98
  call void @EVP_MD_CTX_free(ptr noundef %41)
  %42 = load ptr, ptr @PyExc_ValueError, align 8, !tbaa !14
  %43 = call ptr (ptr, ptr, ...) @_setException(ptr noundef %42, ptr noundef null)
  store ptr null, ptr %3, align 8
  store i32 1, ptr %9, align 4
  br label %51

44:                                               ; preds = %33
  %45 = load ptr, ptr %7, align 8, !tbaa !98
  call void @EVP_MD_CTX_free(ptr noundef %45)
  %46 = load ptr, ptr %6, align 8, !tbaa !21
  %47 = load i64, ptr %5, align 8, !tbaa !32
  %48 = call ptr @_Py_strhex(ptr noundef %46, i64 noundef %47)
  store ptr %48, ptr %8, align 8, !tbaa !14
  %49 = load ptr, ptr %6, align 8, !tbaa !21
  call void @PyMem_Free(ptr noundef %49)
  %50 = load ptr, ptr %8, align 8, !tbaa !14
  store ptr %50, ptr %3, align 8
  store i32 1, ptr %9, align 4
  br label %51

51:                                               ; preds = %44, %39, %28, %20, %14
  call void @llvm.lifetime.end.p0(i64 8, ptr %8) #9
  call void @llvm.lifetime.end.p0(i64 8, ptr %7) #9
  call void @llvm.lifetime.end.p0(i64 8, ptr %6) #9
  %52 = load ptr, ptr %3, align 8
  ret ptr %52
}

; Function Attrs: alwaysinline nounwind uwtable
define internal void @Py_DECREF(ptr noundef %0) #3 {
  %2 = alloca ptr, align 8
  store ptr %0, ptr %2, align 8, !tbaa !14
  %3 = load ptr, ptr %2, align 8, !tbaa !14
  %4 = call i32 @_Py_IsImmortal(ptr noundef %3)
  %5 = icmp ne i32 %4, 0
  br i1 %5, label %6, label %7

6:                                                ; preds = %1
  br label %16

7:                                                ; preds = %1
  %8 = load ptr, ptr %2, align 8, !tbaa !14
  %9 = getelementptr inbounds nuw %struct._object, ptr %8, i32 0, i32 0
  %10 = getelementptr inbounds nuw %struct.anon, ptr %9, i32 0, i32 0
  %11 = load i32, ptr %10, align 8, !tbaa !28
  %12 = add i32 %11, -1
  store i32 %12, ptr %10, align 8, !tbaa !28
  %13 = icmp eq i32 %12, 0
  br i1 %13, label %14, label %16

14:                                               ; preds = %7
  %15 = load ptr, ptr %2, align 8, !tbaa !14
  call void @_Py_Dealloc(ptr noundef %15)
  br label %16

16:                                               ; preds = %6, %14, %7
  ret void
}

; Function Attrs: nounwind uwtable
define internal ptr @EVPXOF_hexdigest(ptr noundef %0, ptr noundef %1, i64 noundef %2, ptr noundef %3) #0 {
  %5 = alloca ptr, align 8
  %6 = alloca ptr, align 8
  %7 = alloca ptr, align 8
  %8 = alloca i64, align 8
  %9 = alloca ptr, align 8
  %10 = alloca ptr, align 8
  %11 = alloca [1 x ptr], align 8
  %12 = alloca i64, align 8
  %13 = alloca i64, align 8
  %14 = alloca ptr, align 8
  %15 = alloca i32, align 4
  store ptr %0, ptr %6, align 8, !tbaa !14
  store ptr %1, ptr %7, align 8, !tbaa !30
  store i64 %2, ptr %8, align 8, !tbaa !32
  store ptr %3, ptr %9, align 8, !tbaa !14
  call void @llvm.lifetime.start.p0(i64 8, ptr %10) #9
  store ptr null, ptr %10, align 8, !tbaa !14
  call void @llvm.lifetime.start.p0(i64 8, ptr %11) #9
  call void @llvm.lifetime.start.p0(i64 8, ptr %12) #9
  %16 = load ptr, ptr %9, align 8, !tbaa !14
  %17 = icmp eq ptr %16, null
  br i1 %17, label %18, label %29

18:                                               ; preds = %4
  %19 = load i64, ptr %8, align 8, !tbaa !32
  %20 = icmp sle i64 1, %19
  br i1 %20, label %21, label %29

21:                                               ; preds = %18
  %22 = load i64, ptr %8, align 8, !tbaa !32
  %23 = icmp sle i64 %22, 1
  br i1 %23, label %24, label %29

24:                                               ; preds = %21
  %25 = load ptr, ptr %7, align 8, !tbaa !30
  %26 = icmp ne ptr %25, null
  br i1 %26, label %27, label %29

27:                                               ; preds = %24
  %28 = load ptr, ptr %7, align 8, !tbaa !30
  br label %35

29:                                               ; preds = %24, %21, %18, %4
  %30 = load ptr, ptr %7, align 8, !tbaa !30
  %31 = load i64, ptr %8, align 8, !tbaa !32
  %32 = load ptr, ptr %9, align 8, !tbaa !14
  %33 = getelementptr inbounds [1 x ptr], ptr %11, i64 0, i64 0
  %34 = call ptr @_PyArg_UnpackKeywords(ptr noundef %30, i64 noundef %31, ptr noundef null, ptr noundef %32, ptr noundef @EVPXOF_hexdigest._parser, i32 noundef 1, i32 noundef 1, i32 noundef 0, i32 noundef 0, ptr noundef %33)
  br label %35

35:                                               ; preds = %29, %27
  %36 = phi ptr [ %28, %27 ], [ %34, %29 ]
  store ptr %36, ptr %7, align 8, !tbaa !30
  %37 = load ptr, ptr %7, align 8, !tbaa !30
  %38 = icmp ne ptr %37, null
  br i1 %38, label %40, label %39

39:                                               ; preds = %35
  br label %66

40:                                               ; preds = %35
  call void @llvm.lifetime.start.p0(i64 8, ptr %13) #9
  store i64 -1, ptr %13, align 8, !tbaa !32
  call void @llvm.lifetime.start.p0(i64 8, ptr %14) #9
  %41 = load ptr, ptr %7, align 8, !tbaa !30
  %42 = getelementptr ptr, ptr %41, i64 0
  %43 = load ptr, ptr %42, align 8, !tbaa !14
  %44 = call ptr @_PyNumber_Index(ptr noundef %43)
  store ptr %44, ptr %14, align 8, !tbaa !14
  %45 = load ptr, ptr %14, align 8, !tbaa !14
  %46 = icmp ne ptr %45, null
  br i1 %46, label %47, label %51

47:                                               ; preds = %40
  %48 = load ptr, ptr %14, align 8, !tbaa !14
  %49 = call i64 @PyLong_AsSsize_t(ptr noundef %48)
  store i64 %49, ptr %13, align 8, !tbaa !32
  %50 = load ptr, ptr %14, align 8, !tbaa !14
  call void @Py_DECREF(ptr noundef %50)
  br label %51

51:                                               ; preds = %47, %40
  %52 = load i64, ptr %13, align 8, !tbaa !32
  %53 = icmp eq i64 %52, -1
  br i1 %53, label %54, label %58

54:                                               ; preds = %51
  %55 = call ptr @PyErr_Occurred()
  %56 = icmp ne ptr %55, null
  br i1 %56, label %57, label %58

57:                                               ; preds = %54
  store i32 2, ptr %15, align 4
  br label %60

58:                                               ; preds = %54, %51
  %59 = load i64, ptr %13, align 8, !tbaa !32
  store i64 %59, ptr %12, align 8, !tbaa !32
  store i32 0, ptr %15, align 4
  br label %60

60:                                               ; preds = %57, %58
  call void @llvm.lifetime.end.p0(i64 8, ptr %14) #9
  call void @llvm.lifetime.end.p0(i64 8, ptr %13) #9
  %61 = load i32, ptr %15, align 4
  switch i32 %61, label %68 [
    i32 0, label %62
    i32 2, label %66
  ]

62:                                               ; preds = %60
  %63 = load ptr, ptr %6, align 8, !tbaa !14
  %64 = load i64, ptr %12, align 8, !tbaa !32
  %65 = call ptr @EVPXOF_hexdigest_impl(ptr noundef %63, i64 noundef %64)
  store ptr %65, ptr %10, align 8, !tbaa !14
  br label %66

66:                                               ; preds = %62, %60, %39
  %67 = load ptr, ptr %10, align 8, !tbaa !14
  store ptr %67, ptr %5, align 8
  store i32 1, ptr %15, align 4
  br label %68

68:                                               ; preds = %66, %60
  call void @llvm.lifetime.end.p0(i64 8, ptr %12) #9
  call void @llvm.lifetime.end.p0(i64 8, ptr %11) #9
  call void @llvm.lifetime.end.p0(i64 8, ptr %10) #9
  %69 = load ptr, ptr %5, align 8
  ret ptr %69
}