; Function Attrs: nounwind uwtable
define internal ptr @EVPXOF_hexdigest(ptr noundef %0, ptr noundef %1, i64 noundef %2, ptr noundef %3) #0 {
  %5 = alloca [1 x ptr], align 8
  call void @llvm.lifetime.start.p0(i64 8, ptr nonnull %5) #9
  %6 = icmp eq ptr %3, null
  %7 = icmp eq i64 %2, 1
  %or.cond3 = and i1 %7, %6
  %8 = icmp ne ptr %1, null
  %or.cond5 = and i1 %8, %or.cond3
  br i1 %or.cond5, label %.thread, label %9

9:                                                ; preds = %4
  %10 = call ptr @_PyArg_UnpackKeywords(ptr noundef %1, i64 noundef %2, ptr noundef null, ptr noundef %3, ptr noundef nonnull @EVPXOF_hexdigest._parser, i32 noundef 1, i32 noundef 1, i32 noundef 0, i32 noundef 0, ptr noundef nonnull %5) #9
  %.not = icmp eq ptr %10, null
  br i1 %.not, label %EVPXOF_hexdigest_impl.exit, label %.thread

.thread:                                          ; preds = %4, %9
  %11 = phi ptr [ %10, %9 ], [ %1, %4 ]
  %12 = load ptr, ptr %11, align 8, !tbaa !23
  %13 = call ptr @_PyNumber_Index(ptr noundef %12) #9
  %.not31 = icmp eq ptr %13, null
  br i1 %.not31, label %Py_DECREF.exit.thread, label %14

14:                                               ; preds = %.thread
  %15 = call i64 @PyLong_AsSsize_t(ptr noundef nonnull %13) #9
  %16 = load i32, ptr %13, align 8, !tbaa !21
  %.not.i = icmp sgt i32 %16, -1
  br i1 %.not.i, label %17, label %Py_DECREF.exit

17:                                               ; preds = %14
  %18 = add nsw i32 %16, -1
  store i32 %18, ptr %13, align 8, !tbaa !21
  %19 = icmp eq i32 %18, 0
  br i1 %19, label %20, label %Py_DECREF.exit

20:                                               ; preds = %17
  call void @_Py_Dealloc(ptr noundef nonnull %13) #9
  br label %Py_DECREF.exit

Py_DECREF.exit:                                   ; preds = %20, %17, %14
  %21 = icmp eq i64 %15, -1
  br i1 %21, label %Py_DECREF.exit.thread, label %23

Py_DECREF.exit.thread:                            ; preds = %.thread, %Py_DECREF.exit
  %22 = call ptr @PyErr_Occurred() #9
  %.not32 = icmp eq ptr %22, null
  br i1 %.not32, label %23, label %EVPXOF_hexdigest_impl.exit

23:                                               ; preds = %Py_DECREF.exit.thread, %Py_DECREF.exit
  %.02537.ph = phi i64 [ %15, %Py_DECREF.exit ], [ -1, %Py_DECREF.exit.thread ]
  %24 = call ptr @PyMem_Malloc(i64 noundef %.02537.ph) #9
  %25 = icmp eq ptr %24, null
  br i1 %25, label %26, label %28

26:                                               ; preds = %23
  %27 = call ptr @PyErr_NoMemory() #9
  br label %EVPXOF_hexdigest_impl.exit

28:                                               ; preds = %23
  %29 = call ptr @EVP_MD_CTX_new() #9
  %30 = icmp eq ptr %29, null
  br i1 %30, label %31, label %33

31:                                               ; preds = %28
  call void @PyMem_Free(ptr noundef nonnull %24) #9
  %32 = call ptr @PyErr_NoMemory() #9
  br label %EVPXOF_hexdigest_impl.exit

33:                                               ; preds = %28
  %34 = getelementptr inbounds nuw i8, ptr %0, i64 24
  %35 = load i8, ptr %34, align 8, !tbaa !59, !range !26, !noundef !27
  %36 = trunc nuw i8 %35 to i1
  br i1 %36, label %37, label %_PyMutex_Lock.exit.i.i

37:                                               ; preds = %33
  %38 = getelementptr inbounds nuw i8, ptr %0, i64 25
  %39 = cmpxchg ptr %38, i8 0, i8 1 seq_cst seq_cst, align 1
  %40 = extractvalue { i8, i1 } %39, 1
  br i1 %40, label %_PyMutex_Lock.exit.i.i, label %41

41:                                               ; preds = %37
  call void @PyMutex_Lock(ptr noundef nonnull %38) #9
  br label %_PyMutex_Lock.exit.i.i

_PyMutex_Lock.exit.i.i:                           ; preds = %41, %37, %33
  %42 = getelementptr inbounds nuw i8, ptr %0, i64 16
  %43 = load ptr, ptr %42, align 8, !tbaa !62
  %44 = call i32 @EVP_MD_CTX_copy(ptr noundef nonnull %29, ptr noundef %43) #9
  %45 = load i8, ptr %34, align 8, !tbaa !59, !range !26, !noundef !27
  %46 = trunc nuw i8 %45 to i1
  br i1 %46, label %47, label %locked_EVP_MD_CTX_copy.exit.i

47:                                               ; preds = %_PyMutex_Lock.exit.i.i
  %48 = getelementptr inbounds nuw i8, ptr %0, i64 25
  %49 = cmpxchg ptr %48, i8 1, i8 0 seq_cst seq_cst, align 1
  %50 = extractvalue { i8, i1 } %49, 1
  br i1 %50, label %locked_EVP_MD_CTX_copy.exit.i, label %51

51:                                               ; preds = %47
  call void @PyMutex_Unlock(ptr noundef nonnull %48) #9
  br label %locked_EVP_MD_CTX_copy.exit.i

locked_EVP_MD_CTX_copy.exit.i:                    ; preds = %51, %47, %_PyMutex_Lock.exit.i.i
  %.not.i34 = icmp eq i32 %44, 0
  br i1 %.not.i34, label %52, label %54

52:                                               ; preds = %locked_EVP_MD_CTX_copy.exit.i
  call void @PyMem_Free(ptr noundef nonnull %24) #9
  call void @EVP_MD_CTX_free(ptr noundef nonnull %29) #9
  %53 = load ptr, ptr @PyExc_ValueError, align 8, !tbaa !23
  call void (ptr, ptr, ...) @_setException(ptr noundef %53, ptr noundef null)
  br label %EVPXOF_hexdigest_impl.exit

54:                                               ; preds = %locked_EVP_MD_CTX_copy.exit.i
  %55 = call i32 @EVP_DigestFinalXOF(ptr noundef nonnull %29, ptr noundef nonnull %24, i64 noundef %.02537.ph) #9
  %.not20.i = icmp eq i32 %55, 0
  br i1 %.not20.i, label %56, label %58

56:                                               ; preds = %54
  call void @PyMem_Free(ptr noundef nonnull %24) #9
  call void @EVP_MD_CTX_free(ptr noundef nonnull %29) #9
  %57 = load ptr, ptr @PyExc_ValueError, align 8, !tbaa !23
  call void (ptr, ptr, ...) @_setException(ptr noundef %57, ptr noundef null)
  br label %EVPXOF_hexdigest_impl.exit

58:                                               ; preds = %54
  call void @EVP_MD_CTX_free(ptr noundef nonnull %29) #9
  %59 = call ptr @_Py_strhex(ptr noundef nonnull %24, i64 noundef %.02537.ph) #9
  call void @PyMem_Free(ptr noundef nonnull %24) #9
  br label %EVPXOF_hexdigest_impl.exit

EVPXOF_hexdigest_impl.exit:                       ; preds = %58, %56, %52, %31, %26, %Py_DECREF.exit.thread, %9
  %.027 = phi ptr [ null, %9 ], [ null, %Py_DECREF.exit.thread ], [ null, %26 ], [ null, %31 ], [ %59, %58 ], [ null, %56 ], [ null, %52 ]
  call void @llvm.lifetime.end.p0(i64 8, ptr nonnull %5) #9
  ret ptr %.027
}